; ModuleID = 'bench/gromacs/original/pointstate.ll'
source_filename = "bench/gromacs/original/pointstate.ll"
target datalayout = "e-m:e-p270:32:32-p271:32:32-p272:64:64-i64:64-i128:128-f80:128-n8:16:32:64-S128"
target triple = "x86_64-pc-linux-gnu"

; Function Attrs: mustprogress nofree nounwind willreturn memory(write, argmem: readwrite) uwtable
define void @_ZN3gmx10PointState9samplePmfEd(ptr noundef nonnull align 8 captures(none) dereferenceable(96) %0, double noundef %1) local_unnamed_addr #0 align 2 {
  %3 = getelementptr inbounds nuw i8, ptr %0, i64 16
  %4 = load double, ptr %3, align 8, !tbaa !4
  %5 = fcmp ogt double %4, 0.000000e+00
  br i1 %5, label %6, label %21

6:                                                ; preds = %2
  %7 = getelementptr inbounds nuw i8, ptr %0, i64 64
  %8 = load double, ptr %7, align 8, !tbaa !10
  %9 = fneg double %1
  %10 = fcmp ogt double %8, %9
  %11 = select i1 %10, double %8, double %9
  %12 = fadd double %1, %8
  %13 = tail call double @llvm.fabs.f64(double %12)
  %14 = fneg double %13
  %15 = tail call double @exp(double noundef %14) #3, !tbaa !11
  %16 = tail call double @log1p(double noundef %15) #3, !tbaa !11
  %17 = fadd double %11, %16
  store double %17, ptr %7, align 8, !tbaa !10
  %18 = getelementptr inbounds nuw i8, ptr %0, i64 72
  %19 = load double, ptr %18, align 8, !tbaa !13
  %20 = fadd double %19, 1.000000e+00
  store double %20, ptr %18, align 8, !tbaa !13
  br label %21

21:                                               ; preds = %6, %2
  ret void
}

; Function Attrs: mustprogress nofree nounwind willreturn memory(write)
declare double @log1p(double noundef) local_unnamed_addr #1

; Function Attrs: mustprogress nofree nounwind willreturn memory(write)
declare double @exp(double noundef) local_unnamed_addr #1

; Function Attrs: mustprogress nocallback nofree nosync nounwind speculatable willreturn memory(none)
declare double @llvm.fabs.f64(double) #2

; Function Attrs: mustprogress nofree nounwind willreturn memory(write, argmem: readwrite) uwtable
define void @_ZN3gmx10PointState18updatePmfUnvisitedEd(ptr noundef nonnull align 8 captures(none) dereferenceable(96) %0, double noundef %1) local_unnamed_addr #0 align 2 {
  %3 = getelementptr inbounds nuw i8, ptr %0, i64 16
  %4 = load double, ptr %3, align 8, !tbaa !4
  %5 = fcmp ogt double %4, 0.000000e+00
  br i1 %5, label %6, label %18

6:                                                ; preds = %2
  %7 = getelementptr inbounds nuw i8, ptr %0, i64 64
  %8 = load double, ptr %7, align 8, !tbaa !10
  %9 = fneg double %1
  %10 = fcmp ogt double %8, %9
  %11 = select i1 %10, double %8, double %9
  %12 = fadd double %1, %8
  %13 = tail call double @llvm.fabs.f64(double %12)
  %14 = fneg double %13
  %15 = tail call double @exp(double noundef %14) #3, !tbaa !11
  %16 = tail call double @log1p(double noundef %15) #3, !tbaa !11
  %17 = fadd double %11, %16
  store double %17, ptr %7, align 8, !tbaa !10
  br label %18

18:                                               ; preds = %6, %2
  ret void
}


!llvm.module.flags = !{!0, !1, !2, !3}

!0 = !{i32 1, !"wchar_size", i32 4}
!1 = !{i32 7, !"openmp", i32 51}
!2 = !{i32 8, !"PIC Level", i32 2}
!3 = !{i32 7, !"uwtable", i32 2}
!4 = !{!5, !6, i64 16}
!5 = !{!"_ZTSN3gmx10PointStateE", !6, i64 0, !6, i64 8, !6, i64 16, !6, i64 24, !6, i64 32, !6, i64 40, !6, i64 48, !9, i64 56, !6, i64 64, !6, i64 72, !6, i64 80, !6, i64 88}
!6 = !{!"double", !7, i64 0}
!7 = !{!"omnipotent char", !8, i64 0}
!8 = !{!"Simple C++ TBAA"}
!9 = !{!"long", !7, i64 0}
!10 = !{!5, !6, i64 64}
!11 = !{!12, !12, i64 0}
!12 = !{!"int", !7, i64 0}
!13 = !{!5, !6, i64 72}
